target datalayout = "e-m:e-p270:32:32-p271:32:32-p272:64:64-i64:64-i128:128-f80:128-n8:16:32:64-S128"
target triple = "x86_64-pc-linux-gnu"

%"class.doctest::String" = type { %union.anon.7 }
%union.anon.7 = type { %"struct.doctest::String::view", [8 x i8] }
%"struct.doctest::String::view" = type { ptr, i32, i32 }
%"class.doctest::Contains" = type { %"class.doctest::String" }
%"struct.doctest::ContextOptions" = type <{ ptr, %"class.doctest::String", ptr, %"class.doctest::String", %"class.doctest::String", i32, i32, i32, i32, i32, i8, i8, i8, i8, i8, i8, i8, i8, i8, i8, i8, i8, i8, i8, i8, i8, i8, i8, i8, i8, i8, i8, i8, i8, i8, i8, i8, i8 }>
%"struct.doctest::TestRunStats" = type { i32, i32, i32, i32, i32, i32 }
%"struct.doctest::detail::ContextState" = type <{ %"struct.doctest::ContextOptions.base", i8, %"struct.doctest::TestRunStats", %"struct.doctest::CurrentTestCaseStats", %"class.doctest::detail::MultiLaneAtomic", %"class.doctest::detail::MultiLaneAtomic", %"class.std::vector.9", %"class.std::vector.14", ptr, %"struct.doctest::detail::Timer", %"class.std::vector.19", i8, [7 x i8], %"class.std::vector.24", %"class.std::vector.24", %"class.std::unordered_set", i64, %"struct.std::atomic.34", [7 x i8] }>
%"struct.doctest::ContextOptions.base" = type <{ ptr, %"class.doctest::String", ptr, %"class.doctest::String", %"class.doctest::String", i32, i32, i32, i32, i32, i8, i8, i8, i8, i8, i8, i8, i8, i8, i8, i8, i8, i8, i8, i8, i8, i8, i8, i8, i8, i8, i8, i8, i8, i8, i8, i8 }>
%"struct.doctest::CurrentTestCaseStats" = type { i32, i32, double, i32, i8 }
%"class.doctest::detail::MultiLaneAtomic" = type { [32 x %"struct.doctest::detail::MultiLaneAtomic<int>::CacheLineAlignedAtomic"] }
%"struct.doctest::detail::MultiLaneAtomic<int>::CacheLineAlignedAtomic" = type { %"struct.std::atomic", [60 x i8] }
%"struct.std::atomic" = type { %"struct.std::__atomic_base" }
%"struct.std::__atomic_base" = type { i32 }
%"class.std::vector.9" = type { %"struct.std::_Vector_base.10" }
%"struct.std::_Vector_base.10" = type { %"struct.std::_Vector_base<std::vector<doctest::String>, std::allocator<std::vector<doctest::String>>>::_Vector_impl" }
%"struct.std::_Vector_base<std::vector<doctest::String>, std::allocator<std::vector<doctest::String>>>::_Vector_impl" = type { %"struct.std::_Vector_base<std::vector<doctest::String>, std::allocator<std::vector<doctest::String>>>::_Vector_impl_data" }
%"struct.std::_Vector_base<std::vector<doctest::String>, std::allocator<std::vector<doctest::String>>>::_Vector_impl_data" = type { ptr, ptr, ptr }
%"class.std::vector.14" = type { %"struct.std::_Vector_base.15" }
%"struct.std::_Vector_base.15" = type { %"struct.std::_Vector_base<doctest::IReporter *, std::allocator<doctest::IReporter *>>::_Vector_impl" }
%"struct.std::_Vector_base<doctest::IReporter *, std::allocator<doctest::IReporter *>>::_Vector_impl" = type { %"struct.std::_Vector_base<doctest::IReporter *, std::allocator<doctest::IReporter *>>::_Vector_impl_data" }
%"struct.std::_Vector_base<doctest::IReporter *, std::allocator<doctest::IReporter *>>::_Vector_impl_data" = type { ptr, ptr, ptr }
%"struct.doctest::detail::Timer" = type { i64 }
%"class.std::vector.19" = type { %"struct.std::_Vector_base.20" }
%"struct.std::_Vector_base.20" = type { %"struct.std::_Vector_base<doctest::String, std::allocator<doctest::String>>::_Vector_impl" }
%"struct.std::_Vector_base<doctest::String, std::allocator<doctest::String>>::_Vector_impl" = type { %"struct.std::_Vector_base<doctest::String, std::allocator<doctest::String>>::_Vector_impl_data" }
%"struct.std::_Vector_base<doctest::String, std::allocator<doctest::String>>::_Vector_impl_data" = type { ptr, ptr, ptr }
%"class.std::vector.24" = type { %"struct.std::_Vector_base.25" }
%"struct.std::_Vector_base.25" = type { %"struct.std::_Vector_base<doctest::SubcaseSignature, std::allocator<doctest::SubcaseSignature>>::_Vector_impl" }
%"struct.std::_Vector_base<doctest::SubcaseSignature, std::allocator<doctest::SubcaseSignature>>::_Vector_impl" = type { %"struct.std::_Vector_base<doctest::SubcaseSignature, std::allocator<doctest::SubcaseSignature>>::_Vector_impl_data" }
%"struct.std::_Vector_base<doctest::SubcaseSignature, std::allocator<doctest::SubcaseSignature>>::_Vector_impl_data" = type { ptr, ptr, ptr }
%"class.std::unordered_set" = type { %"class.std::_Hashtable" }
%"class.std::_Hashtable" = type { ptr, i64, %"struct.std::__detail::_Hash_node_base", i64, %"struct.std::__detail::_Prime_rehash_policy", ptr }
%"struct.std::__detail::_Hash_node_base" = type { ptr }
%"struct.std::__detail::_Prime_rehash_policy" = type { float, i64 }
%"struct.std::atomic.34" = type { %"struct.std::__atomic_base.35" }
%"struct.std::__atomic_base.35" = type { i8 }
%"struct.doctest::AssertData" = type { ptr, i32, ptr, i32, ptr, i8, i8, %"class.doctest::String", %"class.doctest::String", i8, ptr, %"class.doctest::AssertData::StringContains" }
%"class.doctest::AssertData::StringContains" = type <{ %"class.doctest::Contains", i8, [7 x i8] }>

@_ZN7doctest6detail4g_csE = dso_local global ptr null, align 8

; Function Attrs: mustprogress nounwind uwtable
define linkonce_odr dso_local noundef i32 @_ZStanSt12memory_orderSt23__memory_order_modifier(i32 noundef %0, i32 noundef %1) #1 comdat {
  %3 = alloca i32, align 4
  %4 = alloca i32, align 4
  store i32 %0, ptr %3, align 4, !tbaa !511
  store i32 %1, ptr %4, align 4, !tbaa !513
  %5 = load i32, ptr %3, align 4, !tbaa !511
  %6 = load i32, ptr %4, align 4, !tbaa !513
  %7 = and i32 %5, %6
  ret i32 %7
}

; Function Attrs: alwaysinline mustprogress nounwind uwtable
define linkonce_odr dso_local noundef i32 @_ZNKSt13__atomic_baseIiE4loadESt12memory_order(ptr noundef nonnull align 4 dereferenceable(4) %0, i32 noundef %1) #23 comdat align 2 {
  %3 = alloca ptr, align 8
  %4 = alloca i32, align 4
  %5 = alloca i32, align 4
  %6 = alloca i32, align 4
  store ptr %0, ptr %3, align 8, !tbaa !579
  store i32 %1, ptr %4, align 4, !tbaa !511
  %7 = load ptr, ptr %3, align 8
  call void @llvm.lifetime.start.p0(i64 4, ptr %5) #7
  %8 = load i32, ptr %4, align 4, !tbaa !511
  %9 = call noundef i32 @_ZStanSt12memory_orderSt23__memory_order_modifier(i32 noundef %8, i32 noundef 65535)
  store i32 %9, ptr %5, align 4, !tbaa !511
  br label %10

10:                                               ; preds = %2
  br label %11

11:                                               ; preds = %10
  br label %12

12:                                               ; preds = %11
  br label %13

13:                                               ; preds = %12
  br label %14

14:                                               ; preds = %13
  br label %15

15:                                               ; preds = %14
  %16 = getelementptr inbounds nuw %"struct.std::__atomic_base", ptr %7, i32 0, i32 0
  %17 = load i32, ptr %4, align 4, !tbaa !511
  switch i32 %17, label %18 [
    i32 1, label %20
    i32 2, label %20
    i32 5, label %22
  ]

18:                                               ; preds = %15
  %19 = load atomic i32, ptr %16 monotonic, align 4
  store i32 %19, ptr %6, align 4
  br label %24

20:                                               ; preds = %15, %15
  %21 = load atomic i32, ptr %16 acquire, align 4
  store i32 %21, ptr %6, align 4
  br label %24

22:                                               ; preds = %15
  %23 = load atomic i32, ptr %16 seq_cst, align 4
  store i32 %23, ptr %6, align 4
  br label %24

24:                                               ; preds = %22, %20, %18
  %25 = load i32, ptr %6, align 4, !tbaa !4
  call void @llvm.lifetime.end.p0(i64 4, ptr %5) #7
  ret i32 %25
}

; Function Attrs: mustprogress nounwind uwtable
define linkonce_odr dso_local noundef i32 @_ZNK7doctest6detail15MultiLaneAtomicIiE4loadESt12memory_order(ptr noundef nonnull align 4 dereferenceable(2048) %0, i32 noundef %1) #1 comdat align 2 {
  %3 = alloca ptr, align 8
  %4 = alloca i32, align 4
  %5 = alloca i32, align 4
  %6 = alloca ptr, align 8
  %7 = alloca ptr, align 8
  %8 = alloca ptr, align 8
  %9 = alloca ptr, align 8
  store ptr %0, ptr %3, align 8, !tbaa !113
  store i32 %1, ptr %4, align 4, !tbaa !511
  %10 = load ptr, ptr %3, align 8
  call void @llvm.lifetime.start.p0(i64 4, ptr %5) #7
  store i32 0, ptr %5, align 4, !tbaa !4
  call void @llvm.lifetime.start.p0(i64 8, ptr %6) #7
  %11 = getelementptr inbounds nuw %"class.doctest::detail::MultiLaneAtomic", ptr %10, i32 0, i32 0
  store ptr %11, ptr %6, align 8, !tbaa !589
  call void @llvm.lifetime.start.p0(i64 8, ptr %7) #7
  %12 = load ptr, ptr %6, align 8, !tbaa !589
  %13 = getelementptr inbounds [32 x %"struct.doctest::detail::MultiLaneAtomic<int>::CacheLineAlignedAtomic"], ptr %12, i64 0, i64 0
  store ptr %13, ptr %7, align 8, !tbaa !589
  call void @llvm.lifetime.start.p0(i64 8, ptr %8) #7
  %14 = load ptr, ptr %6, align 8, !tbaa !589
  %15 = getelementptr inbounds [32 x %"struct.doctest::detail::MultiLaneAtomic<int>::CacheLineAlignedAtomic"], ptr %14, i64 0, i64 0
  %16 = getelementptr inbounds %"struct.doctest::detail::MultiLaneAtomic<int>::CacheLineAlignedAtomic", ptr %15, i64 32
  store ptr %16, ptr %8, align 8, !tbaa !589
  br label %17

17:                                               ; preds = %30, %2
  %18 = load ptr, ptr %7, align 8, !tbaa !589
  %19 = load ptr, ptr %8, align 8, !tbaa !589
  %20 = icmp ne ptr %18, %19
  br i1 %20, label %22, label %21

21:                                               ; preds = %17
  call void @llvm.lifetime.end.p0(i64 8, ptr %8) #7
  call void @llvm.lifetime.end.p0(i64 8, ptr %7) #7
  call void @llvm.lifetime.end.p0(i64 8, ptr %6) #7
  br label %33

22:                                               ; preds = %17
  call void @llvm.lifetime.start.p0(i64 8, ptr %9) #7
  %23 = load ptr, ptr %7, align 8, !tbaa !589
  store ptr %23, ptr %9, align 8, !tbaa !589
  %24 = load ptr, ptr %9, align 8, !tbaa !589
  %25 = getelementptr inbounds nuw %"struct.doctest::detail::MultiLaneAtomic<int>::CacheLineAlignedAtomic", ptr %24, i32 0, i32 0
  %26 = load i32, ptr %4, align 4, !tbaa !511
  %27 = call noundef i32 @_ZNKSt13__atomic_baseIiE4loadESt12memory_order(ptr noundef nonnull align 4 dereferenceable(4) %25, i32 noundef %26) #7
  %28 = load i32, ptr %5, align 4, !tbaa !4
  %29 = add nsw i32 %28, %27
  store i32 %29, ptr %5, align 4, !tbaa !4
  call void @llvm.lifetime.end.p0(i64 8, ptr %9) #7
  br label %30

30:                                               ; preds = %22
  %31 = load ptr, ptr %7, align 8, !tbaa !589
  %32 = getelementptr inbounds nuw %"struct.doctest::detail::MultiLaneAtomic<int>::CacheLineAlignedAtomic", ptr %31, i32 1
  store ptr %32, ptr %7, align 8, !tbaa !589
  br label %17

33:                                               ; preds = %21
  %34 = load i32, ptr %5, align 4, !tbaa !4
  call void @llvm.lifetime.end.p0(i64 4, ptr %5) #7
  ret i32 %34
}

; Function Attrs: mustprogress nounwind uwtable
define linkonce_odr dso_local noundef i32 @_ZNK7doctest6detail15MultiLaneAtomicIiEcviEv(ptr noundef nonnull align 4 dereferenceable(2048) %0) #1 comdat align 2 {
  %2 = alloca ptr, align 8
  store ptr %0, ptr %2, align 8, !tbaa !113
  %3 = load ptr, ptr %2, align 8
  %4 = call noundef i32 @_ZNK7doctest6detail15MultiLaneAtomicIiE4loadESt12memory_order(ptr noundef nonnull align 4 dereferenceable(2048) %3, i32 noundef 5) #7
  ret i32 %4
}

; Function Attrs: mustprogress nounwind uwtable
define dso_local noundef ptr @_ZN7doctest17getContextOptionsEv() #1 {
  %1 = load ptr, ptr @_ZN7doctest6detail4g_csE, align 8, !tbaa !84
  ret ptr %1
}

; Function Attrs: mustprogress nounwind uwtable
define dso_local noundef zeroext i1 @_ZN7doctest6detail18checkIfShouldThrowENS_10assertType4EnumE(i32 noundef %0) #1 {
  %2 = alloca i1, align 1
  %3 = alloca i32, align 4
  store i32 %0, ptr %3, align 4, !tbaa !79
  %4 = load i32, ptr %3, align 4, !tbaa !79
  %5 = and i32 %4, 4
  %6 = icmp ne i32 %5, 0
  br i1 %6, label %7, label %8

7:                                                ; preds = %1
  store i1 true, ptr %2, align 1
  br label %32

8:                                                ; preds = %1
  %9 = load i32, ptr %3, align 4, !tbaa !79
  %10 = and i32 %9, 2
  %11 = icmp ne i32 %10, 0
  br i1 %11, label %12, label %31

12:                                               ; preds = %8
  %13 = call noundef ptr @_ZN7doctest17getContextOptionsEv()
  %14 = getelementptr inbounds nuw %"struct.doctest::ContextOptions", ptr %13, i32 0, i32 8
  %15 = load i32, ptr %14, align 4, !tbaa !110
  %16 = icmp sgt i32 %15, 0
  br i1 %16, label %17, label %31

17:                                               ; preds = %12
  %18 = load ptr, ptr @_ZN7doctest6detail4g_csE, align 8, !tbaa !84
  %19 = getelementptr inbounds i8, ptr %18, i64 136
  %20 = getelementptr inbounds nuw %"struct.doctest::TestRunStats", ptr %19, i32 0, i32 5
  %21 = load i32, ptr %20, align 4, !tbaa !111
  %22 = load ptr, ptr @_ZN7doctest6detail4g_csE, align 8, !tbaa !84
  %23 = getelementptr inbounds nuw %"struct.doctest::detail::ContextState", ptr %22, i32 0, i32 5
  %24 = call noundef i32 @_ZNK7doctest6detail15MultiLaneAtomicIiEcviEv(ptr noundef nonnull align 4 dereferenceable(2048) %23) #7
  %25 = add nsw i32 %21, %24
  %26 = call noundef ptr @_ZN7doctest17getContextOptionsEv()
  %27 = getelementptr inbounds nuw %"struct.doctest::ContextOptions", ptr %26, i32 0, i32 8
  %28 = load i32, ptr %27, align 4, !tbaa !110
  %29 = icmp sge i32 %25, %28
  br i1 %29, label %30, label %31

30:                                               ; preds = %17
  store i1 true, ptr %2, align 1
  br label %32

31:                                               ; preds = %17, %12, %8
  store i1 false, ptr %2, align 1
  br label %32

32:                                               ; preds = %31, %30, %7
  %33 = load i1, ptr %2, align 1
  ret i1 %33
}

; Function Attrs: mustprogress uwtable
define dso_local void @_ZNK7doctest6detail13ResultBuilder5reactEv(ptr noundef nonnull align 8 dereferenceable(144) %0) #8 align 2 {
  %2 = alloca ptr, align 8
  store ptr %0, ptr %2, align 8, !tbaa !286
  %3 = load ptr, ptr %2, align 8
  %4 = getelementptr inbounds nuw %"struct.doctest::AssertData", ptr %3, i32 0, i32 5
  %5 = load i8, ptr %4, align 8, !tbaa !281, !range !36, !noundef !37
  %6 = trunc i8 %5 to i1
  br i1 %6, label %7, label %12

7:                                                ; preds = %1
  %8 = getelementptr inbounds nuw %"struct.doctest::AssertData", ptr %3, i32 0, i32 1
  %9 = load i32, ptr %8, align 8, !tbaa !277
  %10 = call noundef zeroext i1 @_ZN7doctest6detail18checkIfShouldThrowENS_10assertType4EnumE(i32 noundef %9)
  br i1 %10, label %11, label %12

11:                                               ; preds = %7
  call void @_ZN7doctest6detail14throwExceptionEv() #29
  unreachable

12:                                               ; preds = %7, %1
  ret void
}